; Function Attrs: nounwind sspstrong uwtable
define internal i64 @ossl_dsa_get_priv_key(i64 noundef %0) #0 {
  %2 = alloca ptr, align 8
  call void @llvm.lifetime.start.p0(i64 8, ptr nonnull %2) #5
  %3 = tail call ptr @rb_check_typeddata(i64 noundef %0, ptr noundef nonnull @ossl_evp_pkey_type) #5
  %.not = icmp eq ptr %3, null
  br i1 %.not, label %4, label %6

4:                                                ; preds = %1
  %5 = load i64, ptr @rb_eRuntimeError, align 8, !tbaa !6
  tail call void (i64, ptr, ...) @rb_raise(i64 noundef %5, ptr noundef nonnull @.str.23) #6
  unreachable

6:                                                ; preds = %1
  %7 = tail call i32 @EVP_PKEY_get_base_id(ptr noundef nonnull %3) #5
  %.not7 = icmp eq i32 %7, 116
  br i1 %.not7, label %10, label %8

8:                                                ; preds = %6
  %9 = load i64, ptr @rb_eRuntimeError, align 8, !tbaa !6
  tail call void (i64, ptr, ...) @ossl_raise(i64 noundef %9, ptr noundef nonnull @.str.24) #6
  unreachable

10:                                               ; preds = %6
  %11 = tail call ptr @EVP_PKEY_get0_DSA(ptr noundef nonnull %3) #5
  call void @DSA_get0_key(ptr noundef %11, ptr noundef null, ptr noundef nonnull %2) #5
  %12 = load ptr, ptr %2, align 8, !tbaa !19
  %13 = icmp eq ptr %12, null
  br i1 %13, label %16, label %14

14:                                               ; preds = %10
  %15 = call i64 @ossl_bn_new(ptr noundef nonnull %12) #5
  br label %16

16:                                               ; preds = %10, %14
  %.0 = phi i64 [ %15, %14 ], [ 4, %10 ]
  call void @llvm.lifetime.end.p0(i64 8, ptr nonnull %2) #5
  ret i64 %.0
}